; Function Attrs: mustprogress nofree norecurse nosync nounwind willreturn memory(argmem: write) uwtable
define void @_ZThn16_N3gmx24ParrinelloRahmanBarostat22registerEnergyCallbackENS_20EnergySignallerEventE(ptr dead_on_unwind noalias writable writeonly sret(%"class.std::optional.17") align 8 captures(none) initializes((32, 33)) %0, ptr noundef %1, i32 noundef %2) unnamed_addr #4 align 2 personality ptr @__gxx_personality_v0 {
  %4 = icmp eq i32 %2, 0
  br i1 %4, label %5, label %_ZN3gmx24ParrinelloRahmanBarostat22registerEnergyCallbackENS_20EnergySignallerEventE.exit

5:                                                ; preds = %3
  %6 = getelementptr inbounds i8, ptr %1, i64 -16
  %7 = ptrtoint ptr %6 to i64
  %8 = getelementptr inbounds nuw i8, ptr %0, i64 16
  %9 = getelementptr inbounds nuw i8, ptr %0, i64 24
  %10 = getelementptr inbounds nuw i8, ptr %0, i64 8
  store i64 0, ptr %10, align 8, !alias.scope !188
  store i64 %7, ptr %0, align 8, !tbaa !40, !alias.scope !188
  store ptr @"_ZNSt17_Function_handlerIFvldEZN3gmx24ParrinelloRahmanBarostat22registerEnergyCallbackENS1_20EnergySignallerEventEE3$_0E9_M_invokeERKSt9_Any_dataOlOd", ptr %9, align 8, !tbaa !184, !alias.scope !188
  store ptr @"_ZNSt17_Function_handlerIFvldEZN3gmx24ParrinelloRahmanBarostat22registerEnergyCallbackENS1_20EnergySignallerEventEE3$_0E10_M_managerERSt9_Any_dataRKS6_St18_Manager_operation", ptr %8, align 8, !tbaa !45, !alias.scope !188
  br label %_ZN3gmx24ParrinelloRahmanBarostat22registerEnergyCallbackENS_20EnergySignallerEventE.exit

_ZN3gmx24ParrinelloRahmanBarostat22registerEnergyCallbackENS_20EnergySignallerEventE.exit: ; preds = %3, %5
  %.sink.i = phi i8 [ 1, %5 ], [ 0, %3 ]
  %11 = getelementptr inbounds nuw i8, ptr %0, i64 32
  store i8 %.sink.i, ptr %11, align 8, !tbaa !186, !alias.scope !188
  ret void
}